target datalayout = "e-m:e-p270:32:32-p271:32:32-p272:64:64-i64:64-i128:128-f80:128-n8:16:32:64-S128"
target triple = "x86_64-pc-linux-gnu"

; Function Attrs: nounwind uwtable
define i32 @Abc_TtCountOnesInCofsQuick_rec(ptr noundef %0, i32 noundef %1, ptr noundef %2) #0 {
  %4 = alloca i32, align 4
  %5 = alloca ptr, align 8
  %6 = alloca i32, align 4
  %7 = alloca ptr, align 8
  %8 = alloca i64, align 8
  %9 = alloca ptr, align 8
  %10 = alloca ptr, align 8
  %11 = alloca i32, align 4
  %12 = alloca i32, align 4
  %13 = alloca i32, align 4
  %14 = alloca i32, align 4
  %15 = alloca i32, align 4
  store ptr %0, ptr %5, align 8, !tbaa !14
  store i32 %1, ptr %6, align 4, !tbaa !3
  store ptr %2, ptr %7, align 8, !tbaa !17
  %16 = load i32, ptr %6, align 4, !tbaa !3
  %17 = icmp sle i32 %16, 8
  br i1 %17, label %18, label %131

18:                                               ; preds = %3
  call void @llvm.lifetime.start.p0(i64 8, ptr %8) #5
  store i64 0, ptr %8, align 8, !tbaa !9
  call void @llvm.lifetime.start.p0(i64 8, ptr %9) #5
  store ptr %8, ptr %9, align 8, !tbaa !19
  call void @llvm.lifetime.start.p0(i64 8, ptr %10) #5
  %19 = load ptr, ptr %5, align 8, !tbaa !14
  store ptr %19, ptr %10, align 8, !tbaa !19
  call void @llvm.lifetime.start.p0(i64 4, ptr %11) #5
  call void @llvm.lifetime.start.p0(i64 4, ptr %12) #5
  %20 = load i32, ptr %6, align 4, !tbaa !3
  %21 = icmp sle i32 %20, 6
  br i1 %21, label %22, label %23

22:                                               ; preds = %18
  br label %27

23:                                               ; preds = %18
  %24 = load i32, ptr %6, align 4, !tbaa !3
  %25 = sub nsw i32 %24, 4
  %26 = shl i32 1, %25
  br label %27

27:                                               ; preds = %23, %22
  %28 = phi i32 [ 4, %22 ], [ %26, %23 ]
  store i32 %28, ptr %12, align 4, !tbaa !3
  call void @llvm.lifetime.start.p0(i64 4, ptr %13) #5
  %29 = load i32, ptr %12, align 4, !tbaa !3
  %30 = shl i32 %29, 1
  store i32 %30, ptr %13, align 4, !tbaa !3
  store i32 0, ptr %11, align 4, !tbaa !3
  br label %31

31:                                               ; preds = %49, %27
  %32 = load i32, ptr %11, align 4, !tbaa !3
  %33 = load i32, ptr %12, align 4, !tbaa !3
  %34 = icmp slt i32 %32, %33
  br i1 %34, label %35, label %52

35:                                               ; preds = %31
  %36 = load ptr, ptr %10, align 8, !tbaa !19
  %37 = load i32, ptr %11, align 4, !tbaa !3
  %38 = sext i32 %37 to i64
  %39 = getelementptr inbounds i8, ptr %36, i64 %38
  %40 = load i8, ptr %39, align 1, !tbaa !21
  %41 = zext i8 %40 to i64
  %42 = getelementptr inbounds nuw [256 x [32 x i64]], ptr @Table, i64 0, i64 %41
  %43 = load i32, ptr %11, align 4, !tbaa !3
  %44 = sext i32 %43 to i64
  %45 = getelementptr inbounds [32 x i64], ptr %42, i64 0, i64 %44
  %46 = load i64, ptr %45, align 8, !tbaa !9
  %47 = load i64, ptr %8, align 8, !tbaa !9
  %48 = add i64 %47, %46
  store i64 %48, ptr %8, align 8, !tbaa !9
  br label %49

49:                                               ; preds = %35
  %50 = load i32, ptr %11, align 4, !tbaa !3
  %51 = add nsw i32 %50, 1
  store i32 %51, ptr %11, align 4, !tbaa !3
  br label %31, !llvm.loop !22

52:                                               ; preds = %31
  %53 = load i32, ptr %6, align 4, !tbaa !3
  %54 = icmp eq i32 %53, 8
  br i1 %54, label %55, label %64

55:                                               ; preds = %52
  %56 = load ptr, ptr %9, align 8, !tbaa !19
  %57 = getelementptr inbounds i8, ptr %56, i64 7
  %58 = load i8, ptr %57, align 1, !tbaa !21
  %59 = zext i8 %58 to i32
  %60 = load ptr, ptr %7, align 8, !tbaa !17
  %61 = getelementptr inbounds i32, ptr %60, i64 7
  %62 = load i32, ptr %61, align 4, !tbaa !3
  %63 = add nsw i32 %62, %59
  store i32 %63, ptr %61, align 4, !tbaa !3
  br label %64

64:                                               ; preds = %55, %52
  br label %65

65:                                               ; preds = %83, %64
  %66 = load i32, ptr %11, align 4, !tbaa !3
  %67 = load i32, ptr %13, align 4, !tbaa !3
  %68 = icmp slt i32 %66, %67
  br i1 %68, label %69, label %86

69:                                               ; preds = %65
  %70 = load ptr, ptr %10, align 8, !tbaa !19
  %71 = load i32, ptr %11, align 4, !tbaa !3
  %72 = sext i32 %71 to i64
  %73 = getelementptr inbounds i8, ptr %70, i64 %72
  %74 = load i8, ptr %73, align 1, !tbaa !21
  %75 = zext i8 %74 to i64
  %76 = getelementptr inbounds nuw [256 x [32 x i64]], ptr @Table, i64 0, i64 %75
  %77 = load i32, ptr %11, align 4, !tbaa !3
  %78 = sext i32 %77 to i64
  %79 = getelementptr inbounds [32 x i64], ptr %76, i64 0, i64 %78
  %80 = load i64, ptr %79, align 8, !tbaa !9
  %81 = load i64, ptr %8, align 8, !tbaa !9
  %82 = add i64 %81, %80
  store i64 %82, ptr %8, align 8, !tbaa !9
  br label %83

83:                                               ; preds = %69
  %84 = load i32, ptr %11, align 4, !tbaa !3
  %85 = add nsw i32 %84, 1
  store i32 %85, ptr %11, align 4, !tbaa !3
  br label %65, !llvm.loop !23

86:                                               ; preds = %65
  store i32 0, ptr %11, align 4, !tbaa !3
  br label %87

87:                                               ; preds = %105, %86
  %88 = load i32, ptr %11, align 4, !tbaa !3
  %89 = load i32, ptr %6, align 4, !tbaa !3
  %90 = sub nsw i32 %89, 1
  %91 = icmp slt i32 %88, %90
  br i1 %91, label %92, label %108

92:                                               ; preds = %87
  %93 = load ptr, ptr %9, align 8, !tbaa !19
  %94 = load i32, ptr %11, align 4, !tbaa !3
  %95 = sext i32 %94 to i64
  %96 = getelementptr inbounds i8, ptr %93, i64 %95
  %97 = load i8, ptr %96, align 1, !tbaa !21
  %98 = zext i8 %97 to i32
  %99 = load ptr, ptr %7, align 8, !tbaa !17
  %100 = load i32, ptr %11, align 4, !tbaa !3
  %101 = sext i32 %100 to i64
  %102 = getelementptr inbounds i32, ptr %99, i64 %101
  %103 = load i32, ptr %102, align 4, !tbaa !3
  %104 = add nsw i32 %103, %98
  store i32 %104, ptr %102, align 4, !tbaa !3
  br label %105

105:                                              ; preds = %92
  %106 = load i32, ptr %11, align 4, !tbaa !3
  %107 = add nsw i32 %106, 1
  store i32 %107, ptr %11, align 4, !tbaa !3
  br label %87, !llvm.loop !24

108:                                              ; preds = %87
  %109 = load i32, ptr %6, align 4, !tbaa !3
  %110 = icmp slt i32 %109, 8
  br i1 %110, label %111, label %126

111:                                              ; preds = %108
  %112 = load ptr, ptr %9, align 8, !tbaa !19
  %113 = load i32, ptr %6, align 4, !tbaa !3
  %114 = sub nsw i32 %113, 1
  %115 = sext i32 %114 to i64
  %116 = getelementptr inbounds i8, ptr %112, i64 %115
  %117 = load i8, ptr %116, align 1, !tbaa !21
  %118 = zext i8 %117 to i32
  %119 = load ptr, ptr %7, align 8, !tbaa !17
  %120 = load i32, ptr %6, align 4, !tbaa !3
  %121 = sub nsw i32 %120, 1
  %122 = sext i32 %121 to i64
  %123 = getelementptr inbounds i32, ptr %119, i64 %122
  %124 = load i32, ptr %123, align 4, !tbaa !3
  %125 = add nsw i32 %124, %118
  store i32 %125, ptr %123, align 4, !tbaa !3
  br label %126

126:                                              ; preds = %111, %108
  %127 = load ptr, ptr %9, align 8, !tbaa !19
  %128 = getelementptr inbounds i8, ptr %127, i64 7
  %129 = load i8, ptr %128, align 1, !tbaa !21
  %130 = zext i8 %129 to i32
  store i32 %130, ptr %4, align 4
  call void @llvm.lifetime.end.p0(i64 4, ptr %13) #5
  call void @llvm.lifetime.end.p0(i64 4, ptr %12) #5
  call void @llvm.lifetime.end.p0(i64 4, ptr %11) #5
  call void @llvm.lifetime.end.p0(i64 8, ptr %10) #5
  call void @llvm.lifetime.end.p0(i64 8, ptr %9) #5
  call void @llvm.lifetime.end.p0(i64 8, ptr %8) #5
  br label %156

131:                                              ; preds = %3
  call void @llvm.lifetime.start.p0(i64 4, ptr %14) #5
  %132 = load ptr, ptr %5, align 8, !tbaa !14
  %133 = load i32, ptr %6, align 4, !tbaa !3
  %134 = sub nsw i32 %133, 1
  %135 = load ptr, ptr %7, align 8, !tbaa !17
  %136 = call i32 @Abc_TtCountOnesInCofsQuick_rec(ptr noundef %132, i32 noundef %134, ptr noundef %135)
  store i32 %136, ptr %14, align 4, !tbaa !3
  call void @llvm.lifetime.start.p0(i64 4, ptr %15) #5
  %137 = load ptr, ptr %5, align 8, !tbaa !14
  %138 = load i32, ptr %6, align 4, !tbaa !3
  %139 = sub nsw i32 %138, 7
  %140 = shl i32 1, %139
  %141 = sext i32 %140 to i64
  %142 = getelementptr inbounds i64, ptr %137, i64 %141
  %143 = load i32, ptr %6, align 4, !tbaa !3
  %144 = sub nsw i32 %143, 1
  %145 = load ptr, ptr %7, align 8, !tbaa !17
  %146 = call i32 @Abc_TtCountOnesInCofsQuick_rec(ptr noundef %142, i32 noundef %144, ptr noundef %145)
  store i32 %146, ptr %15, align 4, !tbaa !3
  %147 = load i32, ptr %14, align 4, !tbaa !3
  %148 = load ptr, ptr %7, align 8, !tbaa !17
  %149 = load i32, ptr %6, align 4, !tbaa !3
  %150 = sub nsw i32 %149, 1
  %151 = sext i32 %150 to i64
  %152 = getelementptr inbounds i32, ptr %148, i64 %151
  store i32 %147, ptr %152, align 4, !tbaa !3
  %153 = load i32, ptr %14, align 4, !tbaa !3
  %154 = load i32, ptr %15, align 4, !tbaa !3
  %155 = add nsw i32 %153, %154
  store i32 %155, ptr %4, align 4
  call void @llvm.lifetime.end.p0(i64 4, ptr %15) #5
  call void @llvm.lifetime.end.p0(i64 4, ptr %14) #5
  br label %156

156:                                              ; preds = %131, %126
  %157 = load i32, ptr %4, align 4
  ret i32 %157
}

; Function Attrs: nounwind uwtable
define i32 @Abc_TtCountOnesInCofsQuick(ptr noundef %0, i32 noundef %1, ptr noundef %2) #0 {
  %4 = alloca i32, align 4
  %5 = alloca ptr, align 8
  %6 = alloca i32, align 4
  %7 = alloca ptr, align 8
  store ptr %0, ptr %5, align 8, !tbaa !14
  store i32 %1, ptr %6, align 4, !tbaa !3
  store ptr %2, ptr %7, align 8, !tbaa !17
  %8 = load i32, ptr %6, align 4, !tbaa !3
  %9 = icmp eq i32 %8, 0
  br i1 %9, label %10, label %16

10:                                               ; preds = %3
  %11 = load ptr, ptr %5, align 8, !tbaa !14
  %12 = getelementptr inbounds i64, ptr %11, i64 0
  %13 = load i64, ptr %12, align 8, !tbaa !9
  %14 = and i64 %13, 1
  %15 = trunc i64 %14 to i32
  store i32 %15, ptr %4, align 4
  br label %25

16:                                               ; preds = %3
  %17 = load ptr, ptr %7, align 8, !tbaa !17
  %18 = load i32, ptr %6, align 4, !tbaa !3
  %19 = sext i32 %18 to i64
  %20 = mul i64 4, %19
  call void @llvm.memset.p0.i64(ptr align 4 %17, i8 0, i64 %20, i1 false)
  %21 = load ptr, ptr %5, align 8, !tbaa !14
  %22 = load i32, ptr %6, align 4, !tbaa !3
  %23 = load ptr, ptr %7, align 8, !tbaa !17
  %24 = call i32 @Abc_TtCountOnesInCofsQuick_rec(ptr noundef %21, i32 noundef %22, ptr noundef %23)
  store i32 %24, ptr %4, align 4
  br label %25

25:                                               ; preds = %16, %10
  %26 = load i32, ptr %4, align 4
  ret i32 %26
}

; Function Attrs: nounwind uwtable
define void @Abc_TtCountOnesInCofsTest2() #0 {
  %1 = alloca i64, align 8
  %2 = alloca [8 x i32], align 16
  %3 = alloca [8 x i32], align 16
  %4 = alloca i32, align 4
  %5 = alloca i32, align 4
  %6 = alloca i32, align 4
  call void @llvm.lifetime.start.p0(i64 8, ptr %1) #5
  store i64 1229782938247303441, ptr %1, align 8, !tbaa !9
  call void @llvm.lifetime.start.p0(i64 32, ptr %2) #5
  call void @llvm.memset.p0.i64(ptr align 16 %2, i8 0, i64 32, i1 false)
  call void @llvm.lifetime.start.p0(i64 32, ptr %3) #5
  call void @llvm.memset.p0.i64(ptr align 16 %3, i8 0, i64 32, i1 false)
  call void @llvm.lifetime.start.p0(i64 4, ptr %4) #5
  call void @llvm.lifetime.start.p0(i64 4, ptr %5) #5
  call void @llvm.lifetime.start.p0(i64 4, ptr %6) #5
  %7 = getelementptr inbounds [8 x i32], ptr %2, i64 0, i64 0
  %8 = call i32 @Abc_TtCountOnesInCofsSimple(ptr noundef %1, i32 noundef 2, ptr noundef %7)
  store i32 %8, ptr %5, align 4, !tbaa !3
  %9 = getelementptr inbounds [8 x i32], ptr %3, i64 0, i64 0
  %10 = call i32 @Abc_TtCountOnesInCofsQuick(ptr noundef %1, i32 noundef 2, ptr noundef %9)
  store i32 %10, ptr %6, align 4, !tbaa !3
  store i32 0, ptr %4, align 4, !tbaa !3
  br label %11

11:                                               ; preds = %15, %0
  %12 = load i32, ptr %4, align 4, !tbaa !3
  %13 = icmp slt i32 %12, 8
  br i1 %13, label %14, label %18

14:                                               ; preds = %11
  br label %15

15:                                               ; preds = %14
  %16 = load i32, ptr %4, align 4, !tbaa !3
  %17 = add nsw i32 %16, 1
  store i32 %17, ptr %4, align 4, !tbaa !3
  br label %11, !llvm.loop !25

18:                                               ; preds = %11
  call void @llvm.lifetime.end.p0(i64 4, ptr %6) #5
  call void @llvm.lifetime.end.p0(i64 4, ptr %5) #5
  call void @llvm.lifetime.end.p0(i64 4, ptr %4) #5
  call void @llvm.lifetime.end.p0(i64 32, ptr %3) #5
  call void @llvm.lifetime.end.p0(i64 32, ptr %2) #5
  call void @llvm.lifetime.end.p0(i64 8, ptr %1) #5
  ret void
}