; Function Attrs: nounwind uwtable
define void @Abc_TtCountOnesInCofsTest2() local_unnamed_addr #5 {
.lr.ph.i.preheader:
  %0 = alloca i64, align 8
  %1 = alloca [8 x i32], align 16
  call void @llvm.lifetime.start.p0(i64 8, ptr nonnull %0) #8
  store i64 1229782938247303441, ptr %0, align 8, !tbaa !9
  call void @llvm.lifetime.start.p0(i64 32, ptr nonnull %1) #8
  call void @llvm.memset.p0.i64(ptr noundef nonnull align 16 dereferenceable(32) %1, i8 0, i64 32, i1 false)
  %2 = call i32 @Abc_TtCountOnesInCofsSimple(ptr noundef nonnull %0, i32 noundef 2, ptr noundef nonnull %1) #8
  call void @llvm.lifetime.end.p0(i64 32, ptr nonnull %1) #8
  call void @llvm.lifetime.end.p0(i64 8, ptr nonnull %0) #8
  ret void
}